target datalayout = "e-m:e-p270:32:32-p271:32:32-p272:64:64-i64:64-i128:128-f80:128-n8:16:32:64-S128"
target triple = "x86_64-pc-linux-gnu"

%struct.ident_t = type { i32, i32, i32, i32, ptr }

@1 = private unnamed_addr constant %struct.ident_t { i32 0, i32 514, i32 0, i32 22, ptr @0 }, align 8

; Function Attrs: norecurse nounwind uwtable
define internal void @_ZN5faiss18fvec_renorm_L2_ompEmmPf.omp_outlined(ptr noalias noundef %0, ptr noalias noundef %1, ptr noundef nonnull align 8 dereferenceable(8) %2, ptr noundef nonnull align 8 dereferenceable(8) %3, ptr noundef nonnull align 8 dereferenceable(8) %4) #1 personality ptr @__gxx_personality_v0 {
  %6 = alloca ptr, align 8
  %7 = alloca ptr, align 8
  %8 = alloca ptr, align 8
  %9 = alloca ptr, align 8
  %10 = alloca ptr, align 8
  %11 = alloca i64, align 8
  %12 = alloca i64, align 8
  %13 = alloca i64, align 8
  %14 = alloca i64, align 8
  %15 = alloca i64, align 8
  %16 = alloca i64, align 8
  %17 = alloca i64, align 8
  %18 = alloca i32, align 4
  %19 = alloca i64, align 8
  %20 = alloca ptr, align 8
  %21 = alloca float, align 4
  %22 = alloca i64, align 8
  %23 = alloca float, align 4
  store ptr %0, ptr %6, align 8
  store ptr %1, ptr %7, align 8
  store ptr %2, ptr %8, align 8
  store ptr %3, ptr %9, align 8
  store ptr %4, ptr %10, align 8
  %24 = load ptr, ptr %8, align 8
  %25 = load ptr, ptr %9, align 8
  %26 = load ptr, ptr %10, align 8
  %27 = load i64, ptr %24, align 8
  store i64 %27, ptr %12, align 8
  %28 = load i64, ptr %12, align 8
  %29 = sub i64 %28, 0
  %30 = udiv i64 %29, 1
  %31 = sub i64 %30, 1
  store i64 %31, ptr %13, align 8
  store i64 0, ptr %14, align 8
  %32 = load i64, ptr %12, align 8
  %33 = icmp ult i64 0, %32
  br i1 %33, label %34, label %98

34:                                               ; preds = %5
  store i64 0, ptr %15, align 8
  %35 = load i64, ptr %13, align 8
  store i64 %35, ptr %16, align 8
  store i64 1, ptr %17, align 8
  store i32 0, ptr %18, align 4
  %36 = load ptr, ptr %6, align 8
  %37 = load i32, ptr %36, align 4
  call void @__kmpc_for_static_init_8u(ptr @1, i32 %37, i32 34, ptr %18, ptr %15, ptr %16, ptr %17, i64 1, i64 1)
  %38 = load i64, ptr %16, align 8
  %39 = load i64, ptr %13, align 8
  %40 = icmp ugt i64 %38, %39
  br i1 %40, label %41, label %43

41:                                               ; preds = %34
  %42 = load i64, ptr %13, align 8
  br label %45

43:                                               ; preds = %34
  %44 = load i64, ptr %16, align 8
  br label %45

45:                                               ; preds = %43, %41
  %46 = phi i64 [ %42, %41 ], [ %44, %43 ]
  store i64 %46, ptr %16, align 8
  %47 = load i64, ptr %15, align 8
  store i64 %47, ptr %11, align 8
  br label %48

48:                                               ; preds = %91, %45
  %49 = load i64, ptr %11, align 8
  %50 = load i64, ptr %16, align 8
  %51 = add i64 %50, 1
  %52 = icmp ult i64 %49, %51
  br i1 %52, label %53, label %94

53:                                               ; preds = %48
  %54 = load i64, ptr %11, align 8
  %55 = mul i64 %54, 1
  %56 = add i64 0, %55
  store i64 %56, ptr %19, align 8
  %57 = load ptr, ptr %25, align 8
  %58 = load i64, ptr %19, align 8
  %59 = load i64, ptr %26, align 8
  %60 = mul i64 %58, %59
  %61 = getelementptr inbounds float, ptr %57, i64 %60
  store ptr %61, ptr %20, align 8
  %62 = load ptr, ptr %20, align 8
  %63 = load i64, ptr %26, align 8
  %64 = invoke noundef float @_ZN5faiss15fvec_norm_L2sqrEPKfm(ptr noundef %62, i64 noundef %63)
          to label %65 unwind label %99

65:                                               ; preds = %53
  store float %64, ptr %21, align 4
  %66 = load float, ptr %21, align 4
  %67 = fcmp ogt float %66, 0.000000e+00
  br i1 %67, label %68, label %89

68:                                               ; preds = %65
  %69 = load float, ptr %21, align 4
  %70 = call float @sqrtf(float noundef %69) #2
  %71 = fpext float %70 to double
  %72 = fdiv double 1.000000e+00, %71
  %73 = fptrunc double %72 to float
  store float %73, ptr %23, align 4
  store i64 0, ptr %22, align 8
  br label %74

74:                                               ; preds = %85, %68
  %75 = load i64, ptr %22, align 8
  %76 = load i64, ptr %26, align 8
  %77 = icmp ult i64 %75, %76
  br i1 %77, label %78, label %88

78:                                               ; preds = %74
  %79 = load float, ptr %23, align 4
  %80 = load ptr, ptr %20, align 8
  %81 = load i64, ptr %22, align 8
  %82 = getelementptr inbounds float, ptr %80, i64 %81
  %83 = load float, ptr %82, align 4
  %84 = fmul float %83, %79
  store float %84, ptr %82, align 4
  br label %85

85:                                               ; preds = %78
  %86 = load i64, ptr %22, align 8
  %87 = add i64 %86, 1
  store i64 %87, ptr %22, align 8
  br label %74, !llvm.loop !10

88:                                               ; preds = %74
  br label %89

89:                                               ; preds = %88, %65
  br label %90

90:                                               ; preds = %89
  br label %91

91:                                               ; preds = %90
  %92 = load i64, ptr %11, align 8
  %93 = add i64 %92, 1
  store i64 %93, ptr %11, align 8
  br label %48

94:                                               ; preds = %48
  br label %95

95:                                               ; preds = %94
  %96 = load ptr, ptr %6, align 8
  %97 = load i32, ptr %96, align 4
  call void @__kmpc_for_static_fini(ptr @1, i32 %97)
  br label %98

98:                                               ; preds = %95, %5
  ret void

99:                                               ; preds = %53
  %100 = landingpad { ptr, i32 }
          catch ptr null
  %101 = extractvalue { ptr, i32 } %100, 0
  call void @__clang_call_terminate(ptr %101) #17
  unreachable
}