; Function Attrs: norecurse nounwind uwtable
define internal void @_ZN5faiss18fvec_renorm_L2_ompEmmPf.omp_outlined(ptr noalias nocapture noundef readonly %0, ptr noalias nocapture readnone %1, ptr nocapture noundef nonnull readonly align 8 dereferenceable(8) %2, ptr nocapture noundef nonnull readonly align 8 dereferenceable(8) %3, ptr nocapture noundef nonnull readonly align 8 dereferenceable(8) %4) #1 personality ptr @__gxx_personality_v0 {
  %6 = alloca i64, align 8
  %7 = alloca i64, align 8
  %8 = alloca i64, align 8
  %9 = alloca i32, align 4
  %10 = load i64, ptr %2, align 8
  %.not = icmp eq i64 %10, 0
  br i1 %.not, label %38, label %11

11:                                               ; preds = %5
  %12 = add i64 %10, -1
  store i64 0, ptr %6, align 8
  store i64 %12, ptr %7, align 8
  store i64 1, ptr %8, align 8
  store i32 0, ptr %9, align 4
  %13 = load i32, ptr %0, align 4
  call void @__kmpc_for_static_init_8u(ptr nonnull @1, i32 %13, i32 34, ptr nonnull %9, ptr nonnull %6, ptr nonnull %7, ptr nonnull %8, i64 1, i64 1)
  %14 = load i64, ptr %7, align 8
  %15 = call i64 @llvm.umin.i64(i64 %14, i64 %12)
  store i64 %15, ptr %7, align 8
  %16 = load i64, ptr %6, align 8
  %.not27 = icmp ugt i64 %16, %15
  br i1 %.not27, label %._crit_edge, label %.lr.ph25

.lr.ph25:                                         ; preds = %11, %.loopexit
  %.024 = phi i64 [ %34, %.loopexit ], [ %16, %11 ]
  %17 = load ptr, ptr %3, align 8
  %18 = load i64, ptr %4, align 8
  %19 = mul i64 %18, %.024
  %20 = getelementptr inbounds float, ptr %17, i64 %19
  %21 = invoke noundef float @_ZN5faiss15fvec_norm_L2sqrEPKfm(ptr noundef %20, i64 noundef %18)
          to label %22 unwind label %39

22:                                               ; preds = %.lr.ph25
  %23 = fcmp ogt float %21, 0.000000e+00
  br i1 %23, label %24, label %.loopexit

24:                                               ; preds = %22
  %25 = call float @sqrtf(float noundef %21) #2
  %26 = fdiv float 1.000000e+00, %25
  %27 = load i64, ptr %4, align 8
  %.not26 = icmp eq i64 %27, 0
  br i1 %.not26, label %.loopexit, label %.lr.ph

.lr.ph:                                           ; preds = %24, %.lr.ph
  %.02123 = phi i64 [ %31, %.lr.ph ], [ 0, %24 ]
  %28 = getelementptr inbounds float, ptr %20, i64 %.02123
  %29 = load float, ptr %28, align 4
  %30 = fmul float %26, %29
  store float %30, ptr %28, align 4
  %31 = add nuw i64 %.02123, 1
  %32 = load i64, ptr %4, align 8
  %33 = icmp ult i64 %31, %32
  br i1 %33, label %.lr.ph, label %.loopexit, !llvm.loop !10

.loopexit:                                        ; preds = %.lr.ph, %24, %22
  %34 = add nuw i64 %.024, 1
  %35 = load i64, ptr %7, align 8
  %36 = add i64 %35, 1
  %37 = icmp ult i64 %34, %36
  br i1 %37, label %.lr.ph25, label %._crit_edge

._crit_edge:                                      ; preds = %.loopexit, %11
  call void @__kmpc_for_static_fini(ptr nonnull @1, i32 %13)
  br label %38

38:                                               ; preds = %._crit_edge, %5
  ret void

39:                                               ; preds = %.lr.ph25
  %40 = landingpad { ptr, i32 }
          catch ptr null
  %41 = extractvalue { ptr, i32 } %40, 0
  call void @__clang_call_terminate(ptr %41) #22
  unreachable
}